target datalayout = "e-m:e-p270:32:32-p271:32:32-p272:64:64-i64:64-i128:128-f80:128-n8:16:32:64-S128"
target triple = "x86_64-unknown-linux-gnu"

%"class.v8::IndirectHandleBase" = type { ptr }
%"class.node::MemoryRetainer" = type { ptr }
%"class.std::__shared_count" = type { ptr }
%"class.std::shared_ptr.302" = type { %"class.std::__shared_ptr.303" }
%"class.std::__shared_ptr.303" = type { ptr, %"class.std::__shared_count" }
%"class.node::quic::Stream" = type { %"class.node::AsyncWrap", %"class.node::bob::SourceImpl.base", %"class.node::DataQueue::BackpressureListener", %"class.node::AliasedStruct.398", %"class.node::AliasedStruct.399", %"class.node::BaseObjectPtrImpl.396", i32, i32, %"class.std::unique_ptr.400", %"class.std::shared_ptr.302", %"class.std::vector.408", i32, i64, %"class.node::ListNode.413" }
%"class.node::AsyncWrap" = type { %"class.node::BaseObject", i32, i8, double, double }
%"class.node::BaseObject" = type { %"class.node::MemoryRetainer", %"class.v8::Global", ptr, ptr }
%"class.v8::Global" = type { %"class.v8::PersistentBase" }
%"class.v8::PersistentBase" = type { %"class.v8::IndirectHandleBase" }
%"class.node::bob::SourceImpl.base" = type <{ %"class.node::bob::Source", i8 }>
%"class.node::bob::Source" = type { ptr }
%"class.node::DataQueue::BackpressureListener" = type { ptr }
%"class.node::AliasedStruct.398" = type { ptr, %"class.std::shared_ptr.306", ptr, %"class.v8::Global.309" }
%"class.std::shared_ptr.306" = type { %"class.std::__shared_ptr.307" }
%"class.std::__shared_ptr.307" = type { ptr, %"class.std::__shared_count" }
%"class.v8::Global.309" = type { %"class.v8::PersistentBase.310" }
%"class.v8::PersistentBase.310" = type { %"class.v8::IndirectHandleBase" }
%"class.node::AliasedStruct.399" = type { ptr, %"class.std::shared_ptr.306", ptr, %"class.v8::Global.309" }
%"class.node::BaseObjectPtrImpl.396" = type { %union.anon.397 }
%union.anon.397 = type { ptr }
%"class.std::unique_ptr.400" = type { %"struct.std::__uniq_ptr_data.401" }
%"struct.std::__uniq_ptr_data.401" = type { %"class.std::__uniq_ptr_impl.402" }
%"class.std::__uniq_ptr_impl.402" = type { %"class.std::tuple.403" }
%"class.std::tuple.403" = type { %"struct.std::_Tuple_impl.404" }
%"struct.std::_Tuple_impl.404" = type { %"struct.std::_Head_base.407" }
%"struct.std::_Head_base.407" = type { ptr }
%"class.std::vector.408" = type { %"struct.std::_Vector_base.409" }
%"struct.std::_Vector_base.409" = type { %"struct.std::_Vector_base<v8::Local<v8::Value>, std::allocator<v8::Local<v8::Value>>>::_Vector_impl" }
%"struct.std::_Vector_base<v8::Local<v8::Value>, std::allocator<v8::Local<v8::Value>>>::_Vector_impl" = type { %"struct.std::_Vector_base<v8::Local<v8::Value>, std::allocator<v8::Local<v8::Value>>>::_Vector_impl_data" }
%"struct.std::_Vector_base<v8::Local<v8::Value>, std::allocator<v8::Local<v8::Value>>>::_Vector_impl_data" = type { ptr, ptr, ptr }
%"class.node::ListNode.413" = type { ptr, ptr }
%"struct.node::quic::Stream::State" = type { i64, i8, i8, i8, i8, i8, i8, i8, i8, i8, i8, i8, i8 }
%"class.node::quic::Stream::Outbound" = type { %"class.node::MemoryRetainer", ptr, %"class.std::shared_ptr.302", %"class.std::shared_ptr.436", i8, i8, i8, %"class.std::unique_ptr.439", ptr, ptr, i64, i64, i64 }
%"class.std::shared_ptr.436" = type { %"class.std::__shared_ptr.437" }
%"class.std::__shared_ptr.437" = type { ptr, %"class.std::__shared_count" }
%"class.std::unique_ptr.439" = type { %"struct.std::__uniq_ptr_data.440" }
%"struct.std::__uniq_ptr_data.440" = type { %"class.std::__uniq_ptr_impl.441" }
%"class.std::__uniq_ptr_impl.441" = type { %"class.std::tuple.442" }
%"class.std::tuple.442" = type { %"struct.std::_Tuple_impl.443" }
%"struct.std::_Tuple_impl.443" = type { %"struct.std::_Head_base.446" }
%"struct.std::_Head_base.446" = type { ptr }
%"struct.node::quic::Stream::Outbound::Entry" = type { i64, i64, %"struct.node::DataQueue::Vec", %"class.std::shared_ptr.572", %"class.std::unique_ptr.439" }
%"struct.node::DataQueue::Vec" = type { ptr, i64 }
%"class.std::shared_ptr.572" = type { %"class.std::__shared_ptr.573" }
%"class.std::__shared_ptr.573" = type { ptr, %"class.std::__shared_count" }

; Function Attrs: mustprogress nounwind uwtable
define linkonce_odr dso_local noundef nonnull align 8 dereferenceable(8) ptr @_ZNSt10_Head_baseILm0EPN4node4quic6Stream8Outbound5EntryELb0EE7_M_headERKS6_(ptr noundef nonnull align 8 dereferenceable(8) %__b) #4 comdat align 2 {
entry:
  %__b.addr = alloca ptr, align 8
  store ptr %__b, ptr %__b.addr, align 8
  %0 = load ptr, ptr %__b.addr, align 8
  %_M_head_impl = getelementptr inbounds %"struct.std::_Head_base.446", ptr %0, i32 0, i32 0
  ret ptr %_M_head_impl
}

; Function Attrs: mustprogress nounwind uwtable
define linkonce_odr dso_local noundef nonnull align 8 dereferenceable(8) ptr @_ZNSt10_Head_baseILm0EPN4node4quic6Stream8OutboundELb0EE7_M_headERKS5_(ptr noundef nonnull align 8 dereferenceable(8) %__b) #4 comdat align 2 {
entry:
  %__b.addr = alloca ptr, align 8
  store ptr %__b, ptr %__b.addr, align 8
  %0 = load ptr, ptr %__b.addr, align 8
  %_M_head_impl = getelementptr inbounds %"struct.std::_Head_base.407", ptr %0, i32 0, i32 0
  ret ptr %_M_head_impl
}

; Function Attrs: mustprogress nounwind uwtable
define linkonce_odr dso_local noundef nonnull align 8 dereferenceable(8) ptr @_ZNSt11_Tuple_implILm0EJPN4node4quic6Stream8Outbound5EntryESt14default_deleteIS4_EEE7_M_headERKS8_(ptr noundef nonnull align 8 dereferenceable(8) %__t) #4 comdat align 2 {
entry:
  %__t.addr = alloca ptr, align 8
  store ptr %__t, ptr %__t.addr, align 8
  %0 = load ptr, ptr %__t.addr, align 8
  %call = call noundef nonnull align 8 dereferenceable(8) ptr @_ZNSt10_Head_baseILm0EPN4node4quic6Stream8Outbound5EntryELb0EE7_M_headERKS6_(ptr noundef nonnull align 8 dereferenceable(8) %0) #3
  ret ptr %call
}

; Function Attrs: mustprogress nounwind uwtable
define linkonce_odr dso_local noundef nonnull align 8 dereferenceable(8) ptr @_ZNSt11_Tuple_implILm0EJPN4node4quic6Stream8OutboundESt14default_deleteIS3_EEE7_M_headERKS7_(ptr noundef nonnull align 8 dereferenceable(8) %__t) #4 comdat align 2 {
entry:
  %__t.addr = alloca ptr, align 8
  store ptr %__t, ptr %__t.addr, align 8
  %0 = load ptr, ptr %__t.addr, align 8
  %call = call noundef nonnull align 8 dereferenceable(8) ptr @_ZNSt10_Head_baseILm0EPN4node4quic6Stream8OutboundELb0EE7_M_headERKS5_(ptr noundef nonnull align 8 dereferenceable(8) %0) #3
  ret ptr %call
}

; Function Attrs: mustprogress nounwind uwtable
define linkonce_odr dso_local noundef nonnull align 8 dereferenceable(8) ptr @_ZSt12__get_helperILm0EPN4node4quic6Stream8Outbound5EntryEJSt14default_deleteIS4_EEERKT0_RKSt11_Tuple_implIXT_EJS8_DpT1_EE(ptr noundef nonnull align 8 dereferenceable(8) %__t) #4 comdat {
entry:
  %__t.addr = alloca ptr, align 8
  store ptr %__t, ptr %__t.addr, align 8
  %0 = load ptr, ptr %__t.addr, align 8
  %call = call noundef nonnull align 8 dereferenceable(8) ptr @_ZNSt11_Tuple_implILm0EJPN4node4quic6Stream8Outbound5EntryESt14default_deleteIS4_EEE7_M_headERKS8_(ptr noundef nonnull align 8 dereferenceable(8) %0) #3
  ret ptr %call
}

; Function Attrs: mustprogress nounwind uwtable
define linkonce_odr dso_local noundef nonnull align 8 dereferenceable(8) ptr @_ZSt12__get_helperILm0EPN4node4quic6Stream8OutboundEJSt14default_deleteIS3_EEERKT0_RKSt11_Tuple_implIXT_EJS7_DpT1_EE(ptr noundef nonnull align 8 dereferenceable(8) %__t) #4 comdat {
entry:
  %__t.addr = alloca ptr, align 8
  store ptr %__t, ptr %__t.addr, align 8
  %0 = load ptr, ptr %__t.addr, align 8
  %call = call noundef nonnull align 8 dereferenceable(8) ptr @_ZNSt11_Tuple_implILm0EJPN4node4quic6Stream8OutboundESt14default_deleteIS3_EEE7_M_headERKS7_(ptr noundef nonnull align 8 dereferenceable(8) %0) #3
  ret ptr %call
}

; Function Attrs: mustprogress nounwind uwtable
define linkonce_odr dso_local noundef nonnull align 8 dereferenceable(8) ptr @_ZSt3getILm0EJPN4node4quic6Stream8Outbound5EntryESt14default_deleteIS4_EEERKNSt13tuple_elementIXT_ESt5tupleIJDpT0_EEE4typeERKSC_(ptr noundef nonnull align 8 dereferenceable(8) %__t) #4 comdat {
entry:
  %__t.addr = alloca ptr, align 8
  store ptr %__t, ptr %__t.addr, align 8
  %0 = load ptr, ptr %__t.addr, align 8
  %call = call noundef nonnull align 8 dereferenceable(8) ptr @_ZSt12__get_helperILm0EPN4node4quic6Stream8Outbound5EntryEJSt14default_deleteIS4_EEERKT0_RKSt11_Tuple_implIXT_EJS8_DpT1_EE(ptr noundef nonnull align 8 dereferenceable(8) %0) #3
  ret ptr %call
}

; Function Attrs: mustprogress nounwind uwtable
define linkonce_odr dso_local noundef nonnull align 8 dereferenceable(8) ptr @_ZSt3getILm0EJPN4node4quic6Stream8OutboundESt14default_deleteIS3_EEERKNSt13tuple_elementIXT_ESt5tupleIJDpT0_EEE4typeERKSB_(ptr noundef nonnull align 8 dereferenceable(8) %__t) #4 comdat {
entry:
  %__t.addr = alloca ptr, align 8
  store ptr %__t, ptr %__t.addr, align 8
  %0 = load ptr, ptr %__t.addr, align 8
  %call = call noundef nonnull align 8 dereferenceable(8) ptr @_ZSt12__get_helperILm0EPN4node4quic6Stream8OutboundEJSt14default_deleteIS3_EEERKT0_RKSt11_Tuple_implIXT_EJS7_DpT1_EE(ptr noundef nonnull align 8 dereferenceable(8) %0) #3
  ret ptr %call
}

; Function Attrs: mustprogress nounwind uwtable
define linkonce_odr dso_local noundef ptr @_ZNKSt15__uniq_ptr_implIN4node4quic6Stream8Outbound5EntryESt14default_deleteIS4_EE6_M_ptrEv(ptr noundef nonnull align 8 dereferenceable(8) %this) #4 comdat align 2 {
entry:
  %this.addr = alloca ptr, align 8
  store ptr %this, ptr %this.addr, align 8
  %this1 = load ptr, ptr %this.addr, align 8
  %_M_t = getelementptr inbounds %"class.std::__uniq_ptr_impl.441", ptr %this1, i32 0, i32 0
  %call = call noundef nonnull align 8 dereferenceable(8) ptr @_ZSt3getILm0EJPN4node4quic6Stream8Outbound5EntryESt14default_deleteIS4_EEERKNSt13tuple_elementIXT_ESt5tupleIJDpT0_EEE4typeERKSC_(ptr noundef nonnull align 8 dereferenceable(8) %_M_t) #3
  %0 = load ptr, ptr %call, align 8
  ret ptr %0
}

; Function Attrs: mustprogress nounwind uwtable
define linkonce_odr dso_local noundef ptr @_ZNKSt15__uniq_ptr_implIN4node4quic6Stream8OutboundESt14default_deleteIS3_EE6_M_ptrEv(ptr noundef nonnull align 8 dereferenceable(8) %this) #4 comdat align 2 {
entry:
  %this.addr = alloca ptr, align 8
  store ptr %this, ptr %this.addr, align 8
  %this1 = load ptr, ptr %this.addr, align 8
  %_M_t = getelementptr inbounds %"class.std::__uniq_ptr_impl.402", ptr %this1, i32 0, i32 0
  %call = call noundef nonnull align 8 dereferenceable(8) ptr @_ZSt3getILm0EJPN4node4quic6Stream8OutboundESt14default_deleteIS3_EEERKNSt13tuple_elementIXT_ESt5tupleIJDpT0_EEE4typeERKSB_(ptr noundef nonnull align 8 dereferenceable(8) %_M_t) #3
  %0 = load ptr, ptr %call, align 8
  ret ptr %0
}

; Function Attrs: mustprogress nounwind uwtable
define linkonce_odr dso_local noundef ptr @_ZNKSt10unique_ptrIN4node4quic6Stream8Outbound5EntryESt14default_deleteIS4_EE3getEv(ptr noundef nonnull align 8 dereferenceable(8) %this) #4 comdat align 2 {
entry:
  %this.addr = alloca ptr, align 8
  store ptr %this, ptr %this.addr, align 8
  %this1 = load ptr, ptr %this.addr, align 8
  %_M_t = getelementptr inbounds %"class.std::unique_ptr.439", ptr %this1, i32 0, i32 0
  %call = call noundef ptr @_ZNKSt15__uniq_ptr_implIN4node4quic6Stream8Outbound5EntryESt14default_deleteIS4_EE6_M_ptrEv(ptr noundef nonnull align 8 dereferenceable(8) %_M_t) #3
  ret ptr %call
}

; Function Attrs: mustprogress nounwind uwtable
define linkonce_odr dso_local noundef nonnull align 8 dereferenceable(8) ptr @_ZSt3minImERKT_S2_S2_(ptr noundef nonnull align 8 dereferenceable(8) %__a, ptr noundef nonnull align 8 dereferenceable(8) %__b) #4 comdat {
entry:
  %retval = alloca ptr, align 8
  %__a.addr = alloca ptr, align 8
  %__b.addr = alloca ptr, align 8
  store ptr %__a, ptr %__a.addr, align 8
  store ptr %__b, ptr %__b.addr, align 8
  %0 = load ptr, ptr %__b.addr, align 8
  %1 = load i64, ptr %0, align 8
  %2 = load ptr, ptr %__a.addr, align 8
  %3 = load i64, ptr %2, align 8
  %cmp = icmp ult i64 %1, %3
  br i1 %cmp, label %if.then, label %if.end

if.then:                                          ; preds = %entry
  %4 = load ptr, ptr %__b.addr, align 8
  store ptr %4, ptr %retval, align 8
  br label %return

if.end:                                           ; preds = %entry
  %5 = load ptr, ptr %__a.addr, align 8
  store ptr %5, ptr %retval, align 8
  br label %return

return:                                           ; preds = %if.end, %if.then
  %6 = load ptr, ptr %retval, align 8
  ret ptr %6
}

; Function Attrs: mustprogress nounwind uwtable
define linkonce_odr dso_local noundef ptr @_ZNKSt10unique_ptrIN4node4quic6Stream8OutboundESt14default_deleteIS3_EE3getEv(ptr noundef nonnull align 8 dereferenceable(8) %this) #4 comdat align 2 {
entry:
  %this.addr = alloca ptr, align 8
  store ptr %this, ptr %this.addr, align 8
  %this1 = load ptr, ptr %this.addr, align 8
  %_M_t = getelementptr inbounds %"class.std::unique_ptr.400", ptr %this1, i32 0, i32 0
  %call = call noundef ptr @_ZNKSt15__uniq_ptr_implIN4node4quic6Stream8OutboundESt14default_deleteIS3_EE6_M_ptrEv(ptr noundef nonnull align 8 dereferenceable(8) %_M_t) #3
  ret ptr %call
}

; Function Attrs: mustprogress nounwind uwtable
define linkonce_odr dso_local noundef ptr @_ZNK4node13AliasedStructINS_4quic6Stream5StateEEptEv(ptr noundef nonnull align 8 dereferenceable(40) %this) #4 comdat align 2 {
entry:
  %this.addr = alloca ptr, align 8
  store ptr %this, ptr %this.addr, align 8
  %this1 = load ptr, ptr %this.addr, align 8
  %ptr_ = getelementptr inbounds %"class.node::AliasedStruct.399", ptr %this1, i32 0, i32 2
  %0 = load ptr, ptr %ptr_, align 8
  ret ptr %0
}

; Function Attrs: mustprogress nounwind uwtable
define linkonce_odr dso_local void @_ZN4node4quic6Stream8Outbound6CommitEm(ptr noundef nonnull align 8 dereferenceable(104) %this, i64 noundef %amount) #4 comdat align 2 {
entry:
  %this.addr = alloca ptr, align 8
  %amount.addr = alloca i64, align 8
  %remaining = alloca i64, align 8
  %amount_to_commit = alloca i64, align 8
  %ref.tmp = alloca i64, align 8
  store ptr %this, ptr %this.addr, align 8
  store i64 %amount, ptr %amount.addr, align 8
  %this1 = load ptr, ptr %this.addr, align 8
  %uncommitted_ = getelementptr inbounds %"class.node::quic::Stream::Outbound", ptr %this1, i32 0, i32 12
  %call = call noundef nonnull align 8 dereferenceable(8) ptr @_ZSt3minImERKT_S2_S2_(ptr noundef nonnull align 8 dereferenceable(8) %uncommitted_, ptr noundef nonnull align 8 dereferenceable(8) %amount.addr)
  %0 = load i64, ptr %call, align 8
  store i64 %0, ptr %remaining, align 8
  br label %while.cond

while.cond:                                       ; preds = %if.end, %entry
  %1 = load i64, ptr %remaining, align 8
  %cmp = icmp ugt i64 %1, 0
  br i1 %cmp, label %land.rhs, label %land.end

land.rhs:                                         ; preds = %while.cond
  %commit_head_ = getelementptr inbounds %"class.node::quic::Stream::Outbound", ptr %this1, i32 0, i32 8
  %2 = load ptr, ptr %commit_head_, align 8
  %cmp2 = icmp ne ptr %2, null
  br label %land.end

land.end:                                         ; preds = %land.rhs, %while.cond
  %3 = phi i1 [ false, %while.cond ], [ %cmp2, %land.rhs ]
  br i1 %3, label %while.body, label %while.end

while.body:                                       ; preds = %land.end
  %commit_head_3 = getelementptr inbounds %"class.node::quic::Stream::Outbound", ptr %this1, i32 0, i32 8
  %4 = load ptr, ptr %commit_head_3, align 8
  %buf = getelementptr inbounds %"struct.node::quic::Stream::Outbound::Entry", ptr %4, i32 0, i32 2
  %len = getelementptr inbounds %"struct.node::DataQueue::Vec", ptr %buf, i32 0, i32 1
  %5 = load i64, ptr %len, align 8
  %commit_head_4 = getelementptr inbounds %"class.node::quic::Stream::Outbound", ptr %this1, i32 0, i32 8
  %6 = load ptr, ptr %commit_head_4, align 8
  %offset = getelementptr inbounds %"struct.node::quic::Stream::Outbound::Entry", ptr %6, i32 0, i32 0
  %7 = load i64, ptr %offset, align 8
  %sub = sub i64 %5, %7
  store i64 %sub, ptr %ref.tmp, align 8
  %call5 = call noundef nonnull align 8 dereferenceable(8) ptr @_ZSt3minImERKT_S2_S2_(ptr noundef nonnull align 8 dereferenceable(8) %remaining, ptr noundef nonnull align 8 dereferenceable(8) %ref.tmp)
  %8 = load i64, ptr %call5, align 8
  store i64 %8, ptr %amount_to_commit, align 8
  %9 = load i64, ptr %amount_to_commit, align 8
  %uncommitted_6 = getelementptr inbounds %"class.node::quic::Stream::Outbound", ptr %this1, i32 0, i32 12
  %10 = load i64, ptr %uncommitted_6, align 8
  %sub7 = sub i64 %10, %9
  store i64 %sub7, ptr %uncommitted_6, align 8
  %11 = load i64, ptr %amount_to_commit, align 8
  %12 = load i64, ptr %remaining, align 8
  %sub8 = sub i64 %12, %11
  store i64 %sub8, ptr %remaining, align 8
  %13 = load i64, ptr %amount_to_commit, align 8
  %commit_head_9 = getelementptr inbounds %"class.node::quic::Stream::Outbound", ptr %this1, i32 0, i32 8
  %14 = load ptr, ptr %commit_head_9, align 8
  %offset10 = getelementptr inbounds %"struct.node::quic::Stream::Outbound::Entry", ptr %14, i32 0, i32 0
  %15 = load i64, ptr %offset10, align 8
  %add = add i64 %15, %13
  store i64 %add, ptr %offset10, align 8
  %commit_head_11 = getelementptr inbounds %"class.node::quic::Stream::Outbound", ptr %this1, i32 0, i32 8
  %16 = load ptr, ptr %commit_head_11, align 8
  %offset12 = getelementptr inbounds %"struct.node::quic::Stream::Outbound::Entry", ptr %16, i32 0, i32 0
  %17 = load i64, ptr %offset12, align 8
  %commit_head_13 = getelementptr inbounds %"class.node::quic::Stream::Outbound", ptr %this1, i32 0, i32 8
  %18 = load ptr, ptr %commit_head_13, align 8
  %buf14 = getelementptr inbounds %"struct.node::quic::Stream::Outbound::Entry", ptr %18, i32 0, i32 2
  %len15 = getelementptr inbounds %"struct.node::DataQueue::Vec", ptr %buf14, i32 0, i32 1
  %19 = load i64, ptr %len15, align 8
  %cmp16 = icmp eq i64 %17, %19
  br i1 %cmp16, label %if.then, label %if.end

if.then:                                          ; preds = %while.body
  %count_ = getelementptr inbounds %"class.node::quic::Stream::Outbound", ptr %this1, i32 0, i32 10
  %20 = load i64, ptr %count_, align 8
  %dec = add i64 %20, -1
  store i64 %dec, ptr %count_, align 8
  %commit_head_17 = getelementptr inbounds %"class.node::quic::Stream::Outbound", ptr %this1, i32 0, i32 8
  %21 = load ptr, ptr %commit_head_17, align 8
  %next = getelementptr inbounds %"struct.node::quic::Stream::Outbound::Entry", ptr %21, i32 0, i32 4
  %call18 = call noundef ptr @_ZNKSt10unique_ptrIN4node4quic6Stream8Outbound5EntryESt14default_deleteIS4_EE3getEv(ptr noundef nonnull align 8 dereferenceable(8) %next) #3
  %commit_head_19 = getelementptr inbounds %"class.node::quic::Stream::Outbound", ptr %this1, i32 0, i32 8
  store ptr %call18, ptr %commit_head_19, align 8
  br label %if.end

if.end:                                           ; preds = %if.then, %while.body
  br label %while.cond, !llvm.loop !7

while.end:                                        ; preds = %land.end
  ret void
}

; Function Attrs: mustprogress nounwind uwtable
define linkonce_odr dso_local noundef ptr @_ZNKSt10unique_ptrIN4node4quic6Stream8OutboundESt14default_deleteIS3_EEptEv(ptr noundef nonnull align 8 dereferenceable(8) %this) #4 comdat align 2 {
entry:
  %this.addr = alloca ptr, align 8
  store ptr %this, ptr %this.addr, align 8
  %this1 = load ptr, ptr %this.addr, align 8
  %call = call noundef ptr @_ZNKSt10unique_ptrIN4node4quic6Stream8OutboundESt14default_deleteIS3_EE3getEv(ptr noundef nonnull align 8 dereferenceable(8) %this1) #3
  ret ptr %call
}

; Function Attrs: mustprogress nounwind uwtable
define linkonce_odr dso_local noundef zeroext i1 @_ZNKSt10unique_ptrIN4node4quic6Stream8OutboundESt14default_deleteIS3_EEcvbEv(ptr noundef nonnull align 8 dereferenceable(8) %this) #4 comdat align 2 {
entry:
  %this.addr = alloca ptr, align 8
  store ptr %this, ptr %this.addr, align 8
  %this1 = load ptr, ptr %this.addr, align 8
  %call = call noundef ptr @_ZNKSt10unique_ptrIN4node4quic6Stream8OutboundESt14default_deleteIS3_EE3getEv(ptr noundef nonnull align 8 dereferenceable(8) %this1) #3
  %cmp = icmp eq ptr %call, null
  %cond = select i1 %cmp, i1 false, i1 true
  ret i1 %cond
}

; Function Attrs: mustprogress nounwind uwtable
define dso_local noundef zeroext i1 @_ZNK4node4quic6Stream12is_destroyedEv(ptr noundef nonnull align 8 dereferenceable(256) %this) #4 align 2 {
entry:
  %this.addr = alloca ptr, align 8
  store ptr %this, ptr %this.addr, align 8
  %this1 = load ptr, ptr %this.addr, align 8
  %state_ = getelementptr inbounds %"class.node::quic::Stream", ptr %this1, i32 0, i32 4
  %call = call noundef ptr @_ZNK4node13AliasedStructINS_4quic6Stream5StateEEptEv(ptr noundef nonnull align 8 dereferenceable(40) %state_)
  %destroyed = getelementptr inbounds %"struct.node::quic::Stream::State", ptr %call, i32 0, i32 5
  %0 = load i8, ptr %destroyed, align 4
  %tobool = icmp ne i8 %0, 0
  ret i1 %tobool
}

; Function Attrs: mustprogress nounwind uwtable
define dso_local void @_ZN4node4quic6Stream6CommitEm(ptr noundef nonnull align 8 dereferenceable(256) %this, i64 noundef %datalen) #4 align 2 {
entry:
  %this.addr = alloca ptr, align 8
  %datalen.addr = alloca i64, align 8
  store ptr %this, ptr %this.addr, align 8
  store i64 %datalen, ptr %datalen.addr, align 8
  %this1 = load ptr, ptr %this.addr, align 8
  %call = call noundef zeroext i1 @_ZNK4node4quic6Stream12is_destroyedEv(ptr noundef nonnull align 8 dereferenceable(256) %this1)
  br i1 %call, label %if.end, label %land.lhs.true

land.lhs.true:                                    ; preds = %entry
  %outbound_ = getelementptr inbounds %"class.node::quic::Stream", ptr %this1, i32 0, i32 8
  %call2 = call noundef zeroext i1 @_ZNKSt10unique_ptrIN4node4quic6Stream8OutboundESt14default_deleteIS3_EEcvbEv(ptr noundef nonnull align 8 dereferenceable(8) %outbound_) #3
  br i1 %call2, label %if.then, label %if.end

if.then:                                          ; preds = %land.lhs.true
  %outbound_3 = getelementptr inbounds %"class.node::quic::Stream", ptr %this1, i32 0, i32 8
  %call4 = call noundef ptr @_ZNKSt10unique_ptrIN4node4quic6Stream8OutboundESt14default_deleteIS3_EEptEv(ptr noundef nonnull align 8 dereferenceable(8) %outbound_3) #3
  %0 = load i64, ptr %datalen.addr, align 8
  call void @_ZN4node4quic6Stream8Outbound6CommitEm(ptr noundef nonnull align 8 dereferenceable(104) %call4, i64 noundef %0)
  br label %if.end

if.end:                                           ; preds = %if.then, %land.lhs.true, %entry
  ret void
}