; Function Attrs: mustprogress nofree norecurse nosync nounwind memory(readwrite, inaccessiblemem: none) uwtable
define dso_local void @_ZN4node4quic6Stream6CommitEm(ptr nocapture noundef nonnull readonly align 8 dereferenceable(256) %this, i64 noundef %datalen) local_unnamed_addr #13 align 2 {
entry:
  %ptr_.i.i = getelementptr inbounds i8, ptr %this, i64 144
  %0 = load ptr, ptr %ptr_.i.i, align 8
  %destroyed.i = getelementptr inbounds i8, ptr %0, i64 12
  %1 = load i8, ptr %destroyed.i, align 4
  %tobool.i.not = icmp eq i8 %1, 0
  br i1 %tobool.i.not, label %land.lhs.true, label %if.end

land.lhs.true:                                    ; preds = %entry
  %outbound_ = getelementptr inbounds i8, ptr %this, i64 176
  %2 = load ptr, ptr %outbound_, align 8
  %cmp.i.not = icmp eq ptr %2, null
  br i1 %cmp.i.not, label %if.end, label %if.then

if.then:                                          ; preds = %land.lhs.true
  %uncommitted_.i = getelementptr inbounds i8, ptr %2, i64 96
  %3 = load i64, ptr %uncommitted_.i, align 8
  %.sroa.speculated9.i = tail call i64 @llvm.umin.i64(i64 %3, i64 %datalen)
  %commit_head_.i = getelementptr inbounds i8, ptr %2, i64 64
  %cmp.not11.i = icmp eq i64 %.sroa.speculated9.i, 0
  br i1 %cmp.not11.i, label %if.end, label %land.rhs.lr.ph.i

land.rhs.lr.ph.i:                                 ; preds = %if.then
  %count_.i = getelementptr inbounds i8, ptr %2, i64 80
  %.pre.i = load ptr, ptr %commit_head_.i, align 8
  br label %land.rhs.i

land.rhs.i:                                       ; preds = %if.end.i, %land.rhs.lr.ph.i
  %4 = phi ptr [ %.pre.i, %land.rhs.lr.ph.i ], [ %14, %if.end.i ]
  %remaining.012.i = phi i64 [ %.sroa.speculated9.i, %land.rhs.lr.ph.i ], [ %sub8.i, %if.end.i ]
  %cmp2.not.i = icmp eq ptr %4, null
  br i1 %cmp2.not.i, label %if.end, label %while.body.i

while.body.i:                                     ; preds = %land.rhs.i
  %len.i = getelementptr inbounds i8, ptr %4, i64 24
  %5 = load i64, ptr %len.i, align 8
  %6 = load i64, ptr %4, align 8
  %sub.i = sub i64 %5, %6
  %.sroa.speculated.i = tail call i64 @llvm.umin.i64(i64 %sub.i, i64 %remaining.012.i)
  %7 = load i64, ptr %uncommitted_.i, align 8
  %sub7.i = sub i64 %7, %.sroa.speculated.i
  store i64 %sub7.i, ptr %uncommitted_.i, align 8
  %sub8.i = sub i64 %remaining.012.i, %.sroa.speculated.i
  %8 = load i64, ptr %4, align 8
  %add.i = add i64 %8, %.sroa.speculated.i
  store i64 %add.i, ptr %4, align 8
  %9 = load ptr, ptr %commit_head_.i, align 8
  %10 = load i64, ptr %9, align 8
  %len15.i = getelementptr inbounds i8, ptr %9, i64 24
  %11 = load i64, ptr %len15.i, align 8
  %cmp16.i = icmp eq i64 %10, %11
  br i1 %cmp16.i, label %if.then.i, label %if.end.i

if.then.i:                                        ; preds = %while.body.i
  %12 = load i64, ptr %count_.i, align 8
  %dec.i = add i64 %12, -1
  store i64 %dec.i, ptr %count_.i, align 8
  %next.i = getelementptr inbounds i8, ptr %9, i64 48
  %13 = load ptr, ptr %next.i, align 8
  store ptr %13, ptr %commit_head_.i, align 8
  br label %if.end.i

if.end.i:                                         ; preds = %if.then.i, %while.body.i
  %14 = phi ptr [ %13, %if.then.i ], [ %9, %while.body.i ]
  %cmp.not.i = icmp eq i64 %sub8.i, 0
  br i1 %cmp.not.i, label %if.end, label %land.rhs.i, !llvm.loop !56

if.end:                                           ; preds = %if.end.i, %land.rhs.i, %if.then, %land.lhs.true, %entry
  ret void
}